target datalayout = "e-m:e-p270:32:32-p271:32:32-p272:64:64-i64:64-i128:128-f80:128-n8:16:32:64-S128"
target triple = "x86_64-pc-linux-gnu"

%struct.PlanState = type { i32, ptr, ptr, ptr, ptr, ptr, ptr, ptr, ptr, ptr, ptr, ptr, ptr, ptr, ptr, ptr, ptr, ptr, i8, ptr, ptr, ptr, ptr, ptr, i8, i8, i8, i8, i8, i8, i8, i8 }
%struct.HashJoinTableData = type { i32, i32, i32, i32, i32, %union.anon, i8, ptr, i32, i32, ptr, i32, i32, i32, i32, i8, double, double, double, ptr, ptr, i64, i64, i64, i64, i64, ptr, ptr, ptr, ptr, ptr, ptr, ptr, ptr, i64 }
%union.anon = type { ptr }
%struct.ExprContext = type { i32, ptr, ptr, ptr, ptr, ptr, ptr, ptr, ptr, ptr, i64, i8, i64, i8, ptr, ptr, ptr, ptr }
%struct.pg_atomic_uint64 = type { i64 }
%struct.MinimalTupleData = type { i32, [6 x i8], i16, i16, i8, [0 x i8] }
%struct.HashJoinTupleData = type { %union.anon.0, i32 }
%union.anon.0 = type { ptr }
%struct.HashJoinState = type { %struct.JoinState, ptr, ptr, ptr, i32, i32, i32, ptr, ptr, ptr, ptr, ptr, ptr, i32, i8, i8 }
%struct.JoinState = type { %struct.PlanState, i32, i8, ptr }

@InterruptPending = external global i32, align 4

; Function Attrs: inlinehint nounwind uwtable
define internal i64 @pg_atomic_read_u64_impl(ptr noundef %0) #3 {
  %2 = alloca ptr, align 8
  store ptr %0, ptr %2, align 8
  %3 = load ptr, ptr %2, align 8
  %4 = getelementptr inbounds nuw %struct.pg_atomic_uint64, ptr %3, i32 0, i32 0
  %5 = load volatile i64, ptr %4, align 8
  ret i64 %5
}

; Function Attrs: inlinehint nounwind uwtable
define internal i64 @pg_atomic_read_u64(ptr noundef %0) #3 {
  %2 = alloca ptr, align 8
  store ptr %0, ptr %2, align 8
  %3 = load ptr, ptr %2, align 8
  %4 = call i64 @pg_atomic_read_u64_impl(ptr noundef %3)
  ret i64 %4
}

; Function Attrs: inlinehint nounwind uwtable
define internal zeroext i1 @HeapTupleHeaderHasMatch(ptr noundef %0) #3 {
  %2 = alloca ptr, align 8
  store ptr %0, ptr %2, align 8
  %3 = load ptr, ptr %2, align 8
  %4 = getelementptr inbounds nuw %struct.MinimalTupleData, ptr %3, i32 0, i32 2
  %5 = load i16, ptr %4, align 2
  %6 = zext i16 %5 to i32
  %7 = and i32 %6, 32768
  %8 = icmp ne i32 %7, 0
  ret i1 %8
}

; Function Attrs: inlinehint nounwind uwtable
define internal ptr @ExecParallelHashFirstTuple(ptr noundef %0, i32 noundef %1) #3 {
  %3 = alloca ptr, align 8
  %4 = alloca i32, align 4
  %5 = alloca ptr, align 8
  %6 = alloca i64, align 8
  store ptr %0, ptr %3, align 8
  store i32 %1, ptr %4, align 4
  call void @llvm.lifetime.start.p0(i64 8, ptr %5) #9
  call void @llvm.lifetime.start.p0(i64 8, ptr %6) #9
  %7 = load ptr, ptr %3, align 8
  %8 = getelementptr inbounds nuw %struct.HashJoinTableData, ptr %7, i32 0, i32 5
  %9 = load ptr, ptr %8, align 8
  %10 = load i32, ptr %4, align 4
  %11 = sext i32 %10 to i64
  %12 = getelementptr inbounds %struct.pg_atomic_uint64, ptr %9, i64 %11
  %13 = call i64 @pg_atomic_read_u64(ptr noundef %12)
  store i64 %13, ptr %6, align 8
  %14 = load ptr, ptr %3, align 8
  %15 = getelementptr inbounds nuw %struct.HashJoinTableData, ptr %14, i32 0, i32 31
  %16 = load ptr, ptr %15, align 8
  %17 = load i64, ptr %6, align 8
  %18 = call ptr @dsa_get_address(ptr noundef %16, i64 noundef %17)
  store ptr %18, ptr %5, align 8
  %19 = load ptr, ptr %5, align 8
  call void @llvm.lifetime.end.p0(i64 8, ptr %6) #9
  call void @llvm.lifetime.end.p0(i64 8, ptr %5) #9
  ret ptr %19
}

; Function Attrs: inlinehint nounwind uwtable
define internal ptr @ExecParallelHashNextTuple(ptr noundef %0, ptr noundef %1) #3 {
  %3 = alloca ptr, align 8
  %4 = alloca ptr, align 8
  %5 = alloca ptr, align 8
  store ptr %0, ptr %3, align 8
  store ptr %1, ptr %4, align 8
  call void @llvm.lifetime.start.p0(i64 8, ptr %5) #9
  %6 = load ptr, ptr %3, align 8
  %7 = getelementptr inbounds nuw %struct.HashJoinTableData, ptr %6, i32 0, i32 31
  %8 = load ptr, ptr %7, align 8
  %9 = load ptr, ptr %4, align 8
  %10 = getelementptr inbounds nuw %struct.HashJoinTupleData, ptr %9, i32 0, i32 0
  %11 = load i64, ptr %10, align 8
  %12 = call ptr @dsa_get_address(ptr noundef %8, i64 noundef %11)
  store ptr %12, ptr %5, align 8
  %13 = load ptr, ptr %5, align 8
  call void @llvm.lifetime.end.p0(i64 8, ptr %5) #9
  ret ptr %13
}

; Function Attrs: nounwind uwtable
define dso_local zeroext i1 @ExecParallelScanHashTableForUnmatched(ptr noundef %0, ptr noundef %1) #0 {
  %3 = alloca i1, align 1
  %4 = alloca ptr, align 8
  %5 = alloca ptr, align 8
  %6 = alloca ptr, align 8
  %7 = alloca ptr, align 8
  %8 = alloca ptr, align 8
  %9 = alloca i32, align 4
  store ptr %0, ptr %4, align 8
  store ptr %1, ptr %5, align 8
  call void @llvm.lifetime.start.p0(i64 8, ptr %6) #9
  %10 = load ptr, ptr %4, align 8
  %11 = getelementptr inbounds nuw %struct.HashJoinState, ptr %10, i32 0, i32 3
  %12 = load ptr, ptr %11, align 8
  store ptr %12, ptr %6, align 8
  call void @llvm.lifetime.start.p0(i64 8, ptr %7) #9
  %13 = load ptr, ptr %4, align 8
  %14 = getelementptr inbounds nuw %struct.HashJoinState, ptr %13, i32 0, i32 7
  %15 = load ptr, ptr %14, align 8
  store ptr %15, ptr %7, align 8
  br label %16

16:                                               ; preds = %79, %2
  %17 = load ptr, ptr %7, align 8
  %18 = icmp ne ptr %17, null
  br i1 %18, label %19, label %23

19:                                               ; preds = %16
  %20 = load ptr, ptr %6, align 8
  %21 = load ptr, ptr %7, align 8
  %22 = call ptr @ExecParallelHashNextTuple(ptr noundef %20, ptr noundef %21)
  store ptr %22, ptr %7, align 8
  br label %40

23:                                               ; preds = %16
  %24 = load ptr, ptr %4, align 8
  %25 = getelementptr inbounds nuw %struct.HashJoinState, ptr %24, i32 0, i32 5
  %26 = load i32, ptr %25, align 4
  %27 = load ptr, ptr %6, align 8
  %28 = getelementptr inbounds nuw %struct.HashJoinTableData, ptr %27, i32 0, i32 0
  %29 = load i32, ptr %28, align 8
  %30 = icmp slt i32 %26, %29
  br i1 %30, label %31, label %38

31:                                               ; preds = %23
  %32 = load ptr, ptr %6, align 8
  %33 = load ptr, ptr %4, align 8
  %34 = getelementptr inbounds nuw %struct.HashJoinState, ptr %33, i32 0, i32 5
  %35 = load i32, ptr %34, align 4
  %36 = add i32 %35, 1
  store i32 %36, ptr %34, align 4
  %37 = call ptr @ExecParallelHashFirstTuple(ptr noundef %32, i32 noundef %35)
  store ptr %37, ptr %7, align 8
  br label %39

38:                                               ; preds = %23
  br label %80

39:                                               ; preds = %31
  br label %40

40:                                               ; preds = %39, %19
  br label %41

41:                                               ; preds = %64, %40
  %42 = load ptr, ptr %7, align 8
  %43 = icmp ne ptr %42, null
  br i1 %43, label %44, label %68

44:                                               ; preds = %41
  %45 = load ptr, ptr %7, align 8
  %46 = getelementptr inbounds nuw i8, ptr %45, i64 16
  %47 = call zeroext i1 @HeapTupleHeaderHasMatch(ptr noundef %46)
  br i1 %47, label %64, label %48

48:                                               ; preds = %44
  call void @llvm.lifetime.start.p0(i64 8, ptr %8) #9
  %49 = load ptr, ptr %7, align 8
  %50 = getelementptr inbounds nuw i8, ptr %49, i64 16
  %51 = load ptr, ptr %4, align 8
  %52 = getelementptr inbounds nuw %struct.HashJoinState, ptr %51, i32 0, i32 9
  %53 = load ptr, ptr %52, align 8
  %54 = call ptr @ExecStoreMinimalTuple(ptr noundef %50, ptr noundef %53, i1 noundef zeroext false)
  store ptr %54, ptr %8, align 8
  %55 = load ptr, ptr %8, align 8
  %56 = load ptr, ptr %5, align 8
  %57 = getelementptr inbounds nuw %struct.ExprContext, ptr %56, i32 0, i32 2
  store ptr %55, ptr %57, align 8
  %58 = load ptr, ptr %5, align 8
  %59 = getelementptr inbounds nuw %struct.ExprContext, ptr %58, i32 0, i32 5
  %60 = load ptr, ptr %59, align 8
  call void @MemoryContextReset(ptr noundef %60)
  %61 = load ptr, ptr %7, align 8
  %62 = load ptr, ptr %4, align 8
  %63 = getelementptr inbounds nuw %struct.HashJoinState, ptr %62, i32 0, i32 7
  store ptr %61, ptr %63, align 8
  store i1 true, ptr %3, align 1
  store i32 1, ptr %9, align 4
  call void @llvm.lifetime.end.p0(i64 8, ptr %8) #9
  br label %81

64:                                               ; preds = %44
  %65 = load ptr, ptr %6, align 8
  %66 = load ptr, ptr %7, align 8
  %67 = call ptr @ExecParallelHashNextTuple(ptr noundef %65, ptr noundef %66)
  store ptr %67, ptr %7, align 8
  br label %41, !llvm.loop !21

68:                                               ; preds = %41
  br label %69

69:                                               ; preds = %68
  %70 = load volatile i32, ptr @InterruptPending, align 4
  %71 = icmp ne i32 %70, 0
  %72 = zext i1 %71 to i32
  %73 = sext i32 %72 to i64
  %74 = call i64 @llvm.expect.i64(i64 %73, i64 0)
  %75 = icmp ne i64 %74, 0
  br i1 %75, label %76, label %77

76:                                               ; preds = %69
  call void @ProcessInterrupts()
  br label %77

77:                                               ; preds = %76, %69
  br label %78

78:                                               ; preds = %77
  br label %79

79:                                               ; preds = %78
  br label %16

80:                                               ; preds = %38
  store i1 false, ptr %3, align 1
  store i32 1, ptr %9, align 4
  br label %81

81:                                               ; preds = %80, %48
  call void @llvm.lifetime.end.p0(i64 8, ptr %7) #9
  call void @llvm.lifetime.end.p0(i64 8, ptr %6) #9
  %82 = load i1, ptr %3, align 1
  ret i1 %82
}