; Function Attrs: nounwind uwtable
define dso_local noundef zeroext i1 @ExecParallelScanHashTableForUnmatched(ptr noundef captures(none) %0, ptr noundef captures(none) %1) local_unnamed_addr #0 {
  %3 = getelementptr inbounds nuw i8, ptr %0, i64 232
  %4 = load ptr, ptr %3, align 8
  %5 = getelementptr inbounds nuw i8, ptr %0, i64 256
  %6 = load ptr, ptr %5, align 8
  %7 = getelementptr i8, ptr %4, i64 208
  %8 = getelementptr inbounds nuw i8, ptr %0, i64 244
  %9 = getelementptr inbounds nuw i8, ptr %4, i64 24
  br label %10

10:                                               ; preds = %.backedge, %2
  %.021 = phi ptr [ %6, %2 ], [ null, %.backedge ]
  %.not = icmp eq ptr %.021, null
  br i1 %.not, label %13, label %11

11:                                               ; preds = %10
  %.val25 = load ptr, ptr %7, align 8
  %.021.val = load i64, ptr %.021, align 8
  %12 = tail call ptr @dsa_get_address(ptr noundef %.val25, i64 noundef %.021.val) #16
  br label %25

13:                                               ; preds = %10
  %14 = load i32, ptr %8, align 4
  %15 = load i32, ptr %4, align 8
  %16 = icmp slt i32 %14, %15
  br i1 %16, label %17, label %.loopexit

17:                                               ; preds = %13
  %18 = add nsw i32 %14, 1
  store i32 %18, ptr %8, align 4
  %19 = load ptr, ptr %9, align 8
  %20 = sext i32 %14 to i64
  %21 = getelementptr inbounds %struct.pg_atomic_uint64, ptr %19, i64 %20
  %22 = load volatile i64, ptr %21, align 8
  %23 = load ptr, ptr %7, align 8
  %24 = tail call ptr @dsa_get_address(ptr noundef %23, i64 noundef %22) #16
  br label %25

25:                                               ; preds = %17, %11
  %.1 = phi ptr [ %12, %11 ], [ %24, %17 ]
  %.not2328 = icmp eq ptr %.1, null
  br i1 %.not2328, label %._crit_edge, label %.lr.ph

.lr.ph:                                           ; preds = %25, %36
  %.229 = phi ptr [ %37, %36 ], [ %.1, %25 ]
  %26 = getelementptr i8, ptr %.229, i64 26
  %.val26 = load i16, ptr %26, align 2
  %27 = icmp slt i16 %.val26, 0
  br i1 %27, label %36, label %28

28:                                               ; preds = %.lr.ph
  %29 = getelementptr inbounds nuw i8, ptr %.229, i64 16
  %30 = getelementptr inbounds nuw i8, ptr %0, i64 272
  %31 = load ptr, ptr %30, align 8
  %32 = tail call ptr @ExecStoreMinimalTuple(ptr noundef nonnull %29, ptr noundef %31, i1 noundef zeroext false) #16
  %33 = getelementptr inbounds nuw i8, ptr %1, i64 16
  store ptr %32, ptr %33, align 8
  %34 = getelementptr inbounds nuw i8, ptr %1, i64 40
  %35 = load ptr, ptr %34, align 8
  tail call void @MemoryContextReset(ptr noundef %35) #16
  store ptr %.229, ptr %5, align 8
  br label %.loopexit

36:                                               ; preds = %.lr.ph
  %.val = load ptr, ptr %7, align 8
  %.2.val = load i64, ptr %.229, align 8
  %37 = tail call ptr @dsa_get_address(ptr noundef %.val, i64 noundef %.2.val) #16
  %.not23 = icmp eq ptr %37, null
  br i1 %.not23, label %._crit_edge, label %.lr.ph, !llvm.loop !29

._crit_edge:                                      ; preds = %36, %25
  %38 = load volatile i32, ptr @InterruptPending, align 4
  %.not24 = icmp eq i32 %38, 0
  br i1 %.not24, label %.backedge, label %39, !prof !10

39:                                               ; preds = %._crit_edge
  tail call void @ProcessInterrupts() #16
  br label %.backedge

.backedge:                                        ; preds = %39, %._crit_edge
  br label %10

.loopexit:                                        ; preds = %13, %28
  %.0 = phi i1 [ true, %28 ], [ false, %13 ]
  ret i1 %.0
}